target datalayout = "e-m:e-p270:32:32-p271:32:32-p272:64:64-i64:64-i128:128-f80:128-n8:16:32:64-S128"
target triple = "x86_64-pc-linux-gnu"

%struct._PySemaphore = type { %union.sem_t }
%union.sem_t = type { i64, [24 x i8] }
%struct._ts = type { ptr, ptr, ptr, i64, %struct.anon, i32, i32, i32, i32, i32, i32, i32, i32, ptr, ptr, ptr, ptr, ptr, ptr, ptr, ptr, i32, ptr, i64, i64, ptr, i64, i32, ptr, ptr, ptr, i64, i64, ptr, ptr, ptr, %struct._err_stackitem, ptr, i64, ptr, ptr }
%struct.anon = type { i32 }
%struct._err_stackitem = type { ptr, ptr }
%struct.timespec = type { i64, i64 }

@_Py_tss_tstate = external thread_local global ptr, align 8
@__func__._PySemaphore_PlatformWait = private unnamed_addr constant [26 x i8] c"_PySemaphore_PlatformWait\00", align 1
@.str.2 = private unnamed_addr constant [36 x i8] c"unexpected error from semaphore: %d\00", align 1

; Function Attrs: inlinehint nounwind uwtable
define internal i32 @_Py_atomic_load_int_relaxed(ptr noundef %0) #4 {
  %2 = alloca ptr, align 8
  %3 = alloca i32, align 4
  store ptr %0, ptr %2, align 8, !tbaa !43
  %4 = load ptr, ptr %2, align 8, !tbaa !43
  %5 = load atomic i32, ptr %4 monotonic, align 4
  store i32 %5, ptr %3, align 4
  %6 = load i32, ptr %3, align 4, !tbaa !11
  ret i32 %6
}

; Function Attrs: nounwind uwtable
define internal i32 @_PySemaphore_PlatformWait(ptr noundef %0, i64 noundef %1) #0 {
  %3 = alloca ptr, align 8
  %4 = alloca i64, align 8
  %5 = alloca i32, align 4
  %6 = alloca i32, align 4
  %7 = alloca %struct.timespec, align 8
  %8 = alloca i64, align 8
  %9 = alloca i64, align 8
  store ptr %0, ptr %3, align 8, !tbaa !4
  store i64 %1, ptr %4, align 8, !tbaa !9
  call void @llvm.lifetime.start.p0(i64 4, ptr %5) #9
  call void @llvm.lifetime.start.p0(i64 4, ptr %6) #9
  %10 = load i64, ptr %4, align 8, !tbaa !9
  %11 = icmp sge i64 %10, 0
  br i1 %11, label %12, label %21

12:                                               ; preds = %2
  call void @llvm.lifetime.start.p0(i64 16, ptr %7) #9
  call void @llvm.lifetime.start.p0(i64 8, ptr %8) #9
  %13 = call i32 @PyTime_MonotonicRaw(ptr noundef %8)
  call void @llvm.lifetime.start.p0(i64 8, ptr %9) #9
  %14 = load i64, ptr %8, align 8, !tbaa !9
  %15 = load i64, ptr %4, align 8, !tbaa !9
  %16 = call i64 @_PyTime_Add(i64 noundef %14, i64 noundef %15)
  store i64 %16, ptr %9, align 8, !tbaa !9
  %17 = load i64, ptr %9, align 8, !tbaa !9
  call void @_PyTime_AsTimespec_clamp(i64 noundef %17, ptr noundef %7)
  %18 = load ptr, ptr %3, align 8, !tbaa !4
  %19 = getelementptr inbounds nuw %struct._PySemaphore, ptr %18, i32 0, i32 0
  %20 = call i32 @sem_clockwait(ptr noundef %19, i32 noundef 1, ptr noundef %7)
  store i32 %20, ptr %6, align 4, !tbaa !11
  call void @llvm.lifetime.end.p0(i64 8, ptr %9) #9
  call void @llvm.lifetime.end.p0(i64 8, ptr %8) #9
  call void @llvm.lifetime.end.p0(i64 16, ptr %7) #9
  br label %25

21:                                               ; preds = %2
  %22 = load ptr, ptr %3, align 8, !tbaa !4
  %23 = getelementptr inbounds nuw %struct._PySemaphore, ptr %22, i32 0, i32 0
  %24 = call i32 @sem_wait(ptr noundef %23)
  store i32 %24, ptr %6, align 4, !tbaa !11
  br label %25

25:                                               ; preds = %21, %12
  %26 = load i32, ptr %6, align 4, !tbaa !11
  %27 = icmp eq i32 %26, -1
  br i1 %27, label %28, label %42

28:                                               ; preds = %25
  %29 = call ptr @__errno_location() #11
  %30 = load i32, ptr %29, align 4, !tbaa !11
  store i32 %30, ptr %6, align 4, !tbaa !11
  %31 = load i32, ptr %6, align 4, !tbaa !11
  %32 = icmp eq i32 %31, 4
  br i1 %32, label %33, label %34

33:                                               ; preds = %28
  store i32 -3, ptr %5, align 4, !tbaa !11
  br label %41

34:                                               ; preds = %28
  %35 = load i32, ptr %6, align 4, !tbaa !11
  %36 = icmp eq i32 %35, 110
  br i1 %36, label %37, label %38

37:                                               ; preds = %34
  store i32 -2, ptr %5, align 4, !tbaa !11
  br label %40

38:                                               ; preds = %34
  %39 = load i32, ptr %6, align 4, !tbaa !11
  call void (ptr, ptr, ...) @_Py_FatalErrorFormat(ptr noundef @__func__._PySemaphore_PlatformWait, ptr noundef @.str.2, i32 noundef %39) #10
  unreachable

40:                                               ; preds = %37
  br label %41

41:                                               ; preds = %40, %33
  br label %43

42:                                               ; preds = %25
  store i32 0, ptr %5, align 4, !tbaa !11
  br label %43

43:                                               ; preds = %42, %41
  %44 = load i32, ptr %5, align 4, !tbaa !11
  call void @llvm.lifetime.end.p0(i64 4, ptr %6) #9
  call void @llvm.lifetime.end.p0(i64 4, ptr %5) #9
  ret i32 %44
}

; Function Attrs: inlinehint nounwind uwtable
define internal i32 @_PyThreadState_IsAttached(ptr noundef %0) #4 {
  %2 = alloca ptr, align 8
  store ptr %0, ptr %2, align 8, !tbaa !13
  %3 = load ptr, ptr %2, align 8, !tbaa !13
  %4 = getelementptr inbounds nuw %struct._ts, ptr %3, i32 0, i32 6
  %5 = call i32 @_Py_atomic_load_int_relaxed(ptr noundef %4)
  %6 = icmp eq i32 %5, 1
  %7 = zext i1 %6 to i32
  ret i32 %7
}

; Function Attrs: inlinehint nounwind uwtable
define internal ptr @_PyThreadState_GET() #4 {
  %1 = call align 8 ptr @llvm.threadlocal.address.p0(ptr align 8 @_Py_tss_tstate)
  %2 = load ptr, ptr %1, align 8, !tbaa !13
  ret ptr %2
}

; Function Attrs: nounwind uwtable
define dso_local i32 @_PySemaphore_Wait(ptr noundef %0, i64 noundef %1, i32 noundef %2) #0 {
  %4 = alloca ptr, align 8
  %5 = alloca i64, align 8
  %6 = alloca i32, align 4
  %7 = alloca ptr, align 8
  %8 = alloca i32, align 4
  store ptr %0, ptr %4, align 8, !tbaa !4
  store i64 %1, ptr %5, align 8, !tbaa !9
  store i32 %2, ptr %6, align 4, !tbaa !11
  call void @llvm.lifetime.start.p0(i64 8, ptr %7) #9
  store ptr null, ptr %7, align 8, !tbaa !13
  %9 = load i32, ptr %6, align 4, !tbaa !11
  %10 = icmp ne i32 %9, 0
  br i1 %10, label %11, label %23

11:                                               ; preds = %3
  %12 = call ptr @_PyThreadState_GET()
  store ptr %12, ptr %7, align 8, !tbaa !13
  %13 = load ptr, ptr %7, align 8, !tbaa !13
  %14 = icmp ne ptr %13, null
  br i1 %14, label %15, label %21

15:                                               ; preds = %11
  %16 = load ptr, ptr %7, align 8, !tbaa !13
  %17 = call i32 @_PyThreadState_IsAttached(ptr noundef %16)
  %18 = icmp ne i32 %17, 0
  br i1 %18, label %19, label %21

19:                                               ; preds = %15
  %20 = load ptr, ptr %7, align 8, !tbaa !13
  call void @PyEval_ReleaseThread(ptr noundef %20)
  br label %22

21:                                               ; preds = %15, %11
  store ptr null, ptr %7, align 8, !tbaa !13
  br label %22

22:                                               ; preds = %21, %19
  br label %23

23:                                               ; preds = %22, %3
  call void @llvm.lifetime.start.p0(i64 4, ptr %8) #9
  %24 = load ptr, ptr %4, align 8, !tbaa !4
  %25 = load i64, ptr %5, align 8, !tbaa !9
  %26 = call i32 @_PySemaphore_PlatformWait(ptr noundef %24, i64 noundef %25)
  store i32 %26, ptr %8, align 4, !tbaa !11
  %27 = load ptr, ptr %7, align 8, !tbaa !13
  %28 = icmp ne ptr %27, null
  br i1 %28, label %29, label %31

29:                                               ; preds = %23
  %30 = load ptr, ptr %7, align 8, !tbaa !13
  call void @PyEval_AcquireThread(ptr noundef %30)
  br label %31

31:                                               ; preds = %29, %23
  %32 = load i32, ptr %8, align 4, !tbaa !11
  call void @llvm.lifetime.end.p0(i64 4, ptr %8) #9
  call void @llvm.lifetime.end.p0(i64 8, ptr %7) #9
  ret i32 %32
}