; Function Attrs: nounwind uwtable
define dso_local range(i32 -3, 1) i32 @_PySemaphore_Wait(ptr noundef %0, i64 noundef %1, i32 noundef %2) local_unnamed_addr #0 {
  %4 = alloca %struct.timespec, align 8
  %5 = alloca i64, align 8
  %.not = icmp eq i32 %2, 0
  br i1 %.not, label %13, label %6

6:                                                ; preds = %3
  %7 = tail call align 8 ptr @llvm.threadlocal.address.p0(ptr align 8 @_Py_tss_tstate)
  %8 = load ptr, ptr %7, align 8, !tbaa !4
  %.not9 = icmp eq ptr %8, null
  br i1 %.not9, label %13, label %9

9:                                                ; preds = %6
  %10 = getelementptr inbounds nuw i8, ptr %8, i64 40
  %11 = load atomic i32, ptr %10 monotonic, align 4
  %.not12 = icmp eq i32 %11, 1
  br i1 %.not12, label %12, label %13

12:                                               ; preds = %9
  tail call void @PyEval_ReleaseThread(ptr noundef nonnull %8) #9
  br label %13

13:                                               ; preds = %6, %9, %12, %3
  %.0 = phi ptr [ %8, %12 ], [ null, %3 ], [ null, %9 ], [ null, %6 ]
  %14 = icmp sgt i64 %1, -1
  br i1 %14, label %15, label %20

15:                                               ; preds = %13
  call void @llvm.lifetime.start.p0(i64 16, ptr nonnull %4) #9
  call void @llvm.lifetime.start.p0(i64 8, ptr nonnull %5) #9
  %16 = call i32 @PyTime_MonotonicRaw(ptr noundef nonnull %5) #9
  %17 = load i64, ptr %5, align 8, !tbaa !9
  %18 = call i64 @_PyTime_Add(i64 noundef %17, i64 noundef %1) #9
  call void @_PyTime_AsTimespec_clamp(i64 noundef %18, ptr noundef nonnull %4) #9
  %19 = call i32 @sem_clockwait(ptr noundef %0, i32 noundef 1, ptr noundef nonnull %4) #9
  call void @llvm.lifetime.end.p0(i64 8, ptr nonnull %5) #9
  call void @llvm.lifetime.end.p0(i64 16, ptr nonnull %4) #9
  br label %22

20:                                               ; preds = %13
  %21 = tail call i32 @sem_wait(ptr noundef %0) #9
  br label %22

22:                                               ; preds = %20, %15
  %.09.i = phi i32 [ %19, %15 ], [ %21, %20 ]
  %23 = icmp eq i32 %.09.i, -1
  br i1 %23, label %24, label %_PySemaphore_PlatformWait.exit

24:                                               ; preds = %22
  %25 = tail call ptr @__errno_location() #11
  %26 = load i32, ptr %25, align 4, !tbaa !11
  switch i32 %26, label %28 [
    i32 4, label %_PySemaphore_PlatformWait.exit
    i32 110, label %27
  ]

27:                                               ; preds = %24
  br label %_PySemaphore_PlatformWait.exit

28:                                               ; preds = %24
  call void (ptr, ptr, ...) @_Py_FatalErrorFormat(ptr noundef nonnull @__func__._PySemaphore_PlatformWait, ptr noundef nonnull @.str.2, i32 noundef %26) #10
  unreachable

_PySemaphore_PlatformWait.exit:                   ; preds = %22, %24, %27
  %.0.i = phi i32 [ -2, %27 ], [ -3, %24 ], [ 0, %22 ]
  %.not11 = icmp eq ptr %.0, null
  br i1 %.not11, label %30, label %29

29:                                               ; preds = %_PySemaphore_PlatformWait.exit
  call void @PyEval_AcquireThread(ptr noundef nonnull %.0) #9
  br label %30

30:                                               ; preds = %29, %_PySemaphore_PlatformWait.exit
  ret i32 %.0.i
}